(lp0
(lp1
S'metacontrol_dwa_v1_a0_b0'
p2
aS'dwa_v1_a0_b0'
p3
aS'dwa_v1_a1_b0'
p4
aS'dwa_v1_a1_b1'
p5
aS'dwa_v1_a0_b1'
p6
aS'teb_v1_a0_b0'
p7
aS'teb_v1_a1_b0'
p8
aS'teb_v1_a1_b1'
p9
aS'teb_v1_a0_b1'
p10
aS'dwa_v2_a0_b0'
p11
aS'dwa_v2_a1_b0'
p12
aS'dwa_v2_a1_b1'
p13
aS'dwa_v2_a0_b1'
p14
aS'teb_v2_a0_b0'
p15
aS'teb_v2_a1_b0'
p16
aS'teb_v2_a1_b1'
p17
aS'teb_v2_a0_b1'
p18
aS'metacontrol_dwa_v1_a0_b0'
p19
ag3
ag4
ag5
ag6
ag7
ag8
ag9
ag10
ag11
ag12
ag13
ag14
ag15
ag16
ag17
ag18
aa(dp20
S'S2'
p21
(dp22
g10
F35.6
sg11
F46.6
sg14
F46.6
sg13
F46.800000000000004
sg9
F35.7
sg4
F35.300000000000004
sg5
F36.0
sg6
F35.1
sg3
F35.2
sg16
F46.2
sg8
F35.7
sg18
F46.2
sg15
F46.2
sg12
F46.400000000000006
sg17
F46.2
sg7
F35.6
ssS'S1'
p23
(dp24
g10
F35.7
sg11
F46.5
sg14
F46.5
sg13
F46.400000000000006
sg9
F35.6
sg4
F35.6
sg5
F36.6
sg6
F35.2
sg3
F35.2
sg16
F46.2
sg8
F35.7
sg18
F46.2
sg15
F46.400000000000006
sg12
F46.6
sg17
F46.2
sg7
F35.7
ssa(dp25
g21
(dp26
g10
F0.772056548101219
sg11
F0.5991102737975932
sg14
F0.598142841827136
sg13
F0.5985317968793307
sg9
F0.771449158193518
sg4
F0.7834840111027286
sg5
F0.7799992549758338
sg6
F0.7786323828514417
sg3
F0.7793980776896957
sg16
F0.6057633367869067
sg8
Fnan
sg18
F0.6073678534434892
sg15
F0.6056347081429797
sg12
F0.6021149005810313
sg17
F0.6040166227659747
sg7
F0.7718693302980634
ssg23
(dp27
g10
F0.7581345670838141
sg11
F0.587046218590609
sg14
F0.5850737355458752
sg13
F0.5934470398744734
sg9
F0.760823008765476
sg4
F0.7667978884175105
sg5
F0.7486267398384777
sg6
F0.766104105984414
sg3
F0.768202434234903
sg16
F0.5944615963244149
sg8
F0.7609137434761576
sg18
F0.5933245695503874
sg15
F0.5909113497835853
sg12
F0.5881477346715026
sg17
F0.5956800394007545
sg7
F0.7588300921010702
ssa(dp28
g21
(dp29
g10
F0.713398288635667
sg11
F0.8835033271503365
sg14
F0.8856481983743081
sg13
F0.8571495417863016
sg9
F0.7176954809138381
sg4
F0.7043296834684271
sg5
F0.7067674853674075
sg6
F0.7117172311505509
sg3
F0.7191896289580645
sg16
F0.8631075859054135
sg8
Fnan
sg18
F0.8680382935558775
sg15
F0.8666868855957882
sg12
F0.8550182076997337
sg17
F0.8635858180982652
sg7
F0.7162824110982324
ssg23
(dp30
g10
F0.7817353103406259
sg11
F0.9461607530054564
sg14
F0.945090670713675
sg13
F0.9307100755595635
sg9
F0.7808974471151193
sg4
F0.8211847643749647
sg5
F0.8298043468019525
sg6
F0.8283747889091064
sg3
F0.8318699518778178
sg16
F0.9150672551504956
sg8
F0.7940100960225913
sg18
F0.9145368768099996
sg15
F0.9197931334994901
sg12
F0.9350740278479184
sg17
F0.9175000110894427
sg7
F0.7903640381486174
ssa(dp31
g21
(dp32
g10
F0.209811525881
sg11
F0.278170120429
sg14
F0.286446928503
sg13
F0.104520842255
sg9
F0.21576380659299998
sg4
F0.0510044248094
sg5
F0.0549760283946
sg6
F0.113275270034
sg3
F0.1201386576875
sg16
F0.351178060302
sg8
F1.0
sg18
F0.338606962538
sg15
F0.343841876057
sg12
F0.0980322459877
sg17
F0.345936218747
sg7
F0.210196296005
ssg23
(dp33
g10
F0.207975065426
sg11
F0.500997847823
sg14
F0.531124154945
sg13
F0.345789203157
sg9
F0.209485558527
sg4
F0.0897822741311
sg5
F0.10834690747
sg6
F0.26691738136300003
sg3
F0.264978970599
sg16
F0.343839927942
sg8
F0.211667795508
sg18
F0.358427407599
sg15
F0.3527291082145
sg12
F0.350312226192
sg17
F0.3469544296605
sg7
F0.204739384508
ssa(dp34
g21
(dp35
g10
F14.399999999999965
sg11
F4.699999999999999
sg14
F4.799999999999999
sg13
F6.999999999999991
sg9
F14.099999999999966
sg4
F14.499999999999964
sg5
F14.699999999999964
sg6
F14.499999999999964
sg3
F14.999999999999963
sg16
F7.499999999999989
sg8
I0
sg18
F6.799999999999992
sg15
F6.699999999999992
sg12
F6.999999999999991
sg17
F7.499999999999989
sg7
F14.299999999999965
ssg23
(dp36
g10
F9.199999999999983
sg11
F1.0999999999999999
sg14
F0.9999999999999999
sg13
F2.600000000000001
sg9
F9.299999999999983
sg4
F8.599999999999985
sg5
F8.299999999999986
sg6
F9.099999999999984
sg3
F9.099999999999984
sg16
F4.100000000000001
sg8
F8.899999999999984
sg18
F3.5000000000000018
sg15
F3.800000000000002
sg12
F2.600000000000001
sg17
F3.4000000000000017
sg7
F9.199999999999983
ssa.