(lp0
(lp1
S'Bf'
p2
aS'Bs'
p3
aS'M0'
p4
aS'M1'
p5
aS'M2'
p6
aa(lp7
g4
ag5
ag6
aa(lp8
g2
ag3
aa(lp9
S'S1'
p10
aS'S2'
p11
aS'S3'
p12
aa(lp13
I1
aI2
aI3
aI4
aaccollections
defaultdict
p14
(c__main__
ddd
p15
tp16
Rp17
g2
g14
(c__main__
dd
p18
tp19
Rp20
g12
g14
(c__builtin__
dict
p21
tp22
Rp23
I0
F35.5
sI1
F35.800000000000004
sI2
F35.300000000000004
sI3
F35.5
sI4
F35.400000000000006
ssg11
g14
(g21
tp24
Rp25
I0
F35.025
sI1
F35.0
sI2
F35.0
sI3
F35.0
sI4
F35.1
ssg10
g14
(g21
tp26
Rp27
I0
F35.575
sI1
F35.300000000000004
sI2
F35.6
sI3
F35.6
sI4
F35.800000000000004
sssg6
g14
(g18
tp28
Rp29
g12
g14
(g21
tp30
Rp31
I0
F40.54379245283017
sI1
F41.187547169811296
sI2
F40.5292075471698
sI3
F39.550037735849045
sI4
F40.90837735849055
ssg11
g14
(g21
tp32
Rp33
I0
F37.66773584905659
sI1
F38.21252830188678
sI2
F37.33335849056603
sI3
F37.11252830188678
sI4
F38.012528301886775
ssg10
g14
(g21
tp34
Rp35
I0
F38.488566037735836
sI1
F38.23335849056603
sI2
F39.433358490566036
sI3
F37.27501886792452
sI4
F39.012528301886775
sssg5
g14
(g18
tp36
Rp37
g12
g14
(g21
tp38
Rp39
I0
F44.31356603773584
sI1
F44.53335849056603
sI2
F44.07501886792452
sI3
F44.41252830188678
sI4
F44.23335849056603
ssg11
g14
(g21
tp40
Rp41
I0
F43.551056603773574
sI1
F44.21667924528302
sI2
F43.39584905660377
sI3
F42.99584905660377
sI4
F43.59584905660377
ssg10
g14
(g21
tp42
Rp43
I0
F42.77709433962264
sI1
F46.137509433962265
sI2
F39.61667924528302
sI3
F45.637509433962265
sI4
F39.71667924528302
sssg4
g14
(g18
tp44
Rp45
g12
g14
(g21
tp46
Rp47
I0
F41.507320754716964
sI1
F42.11252830188678
sI2
F40.29169811320753
sI3
F41.81252830188677
sI4
F41.81252830188677
ssg11
g14
(g21
tp48
Rp49
I0
F37.71981132075471
sI1
F37.27501886792452
sI2
F37.45418867924528
sI3
F38.07501886792452
sI4
F38.07501886792452
ssg10
g14
(g21
tp50
Rp51
I0
F43.12605660377358
sI1
F42.21667924528302
sI2
F44.09584905660377
sI3
F43.09584905660377
sI4
F43.09584905660377
sssg3
g14
(g18
tp52
Rp53
g12
g14
(g21
tp54
Rp55
I0
F46.5
sI1
F46.5
sI2
F46.5
sI3
F46.5
sI4
F46.5
ssg11
g14
(g21
tp56
Rp57
I0
F46.2
sI1
F46.2
sI2
F46.2
sI3
F46.1
sI4
F46.300000000000004
ssg10
g14
(g21
tp58
Rp59
I0
F46.45
sI1
F46.5
sI2
F46.5
sI3
F46.400000000000006
sI4
F46.400000000000006
sssag14
(g15
tp60
Rp61
g2
g14
(g18
tp62
Rp63
g12
g14
(g21
tp64
Rp65
I0
F0.7827901024582545
sI1
F0.7742471840447464
sI2
F0.7895810227716212
sI3
F0.7840719122885126
sI4
F0.7832602907281379
ssg11
g14
(g21
tp66
Rp67
I0
F0.7833344885490208
sI1
F0.7834634855409988
sI2
F0.7855166187369279
sI3
F0.7820315839137743
sI4
F0.7823262660043823
ssg10
g14
(g21
tp68
Rp69
I0
F0.7718884515199524
sI1
F0.7801811194435164
sI2
F0.7705375757425871
sI3
F0.7703798157318542
sI4
F0.7664552951618518
sssg6
g14
(g18
tp70
Rp71
g12
g14
(g21
tp72
Rp73
I0
F0.45473131368645037
sI1
F0.4226182649597208
sI2
F0.4576201889582571
sI3
F0.47455931908617616
sI4
F0.4641274817416473
ssg11
g14
(g21
tp74
Rp75
I0
F0.560627667364172
sI1
F0.5490807755438382
sI2
F0.5669151605507442
sI3
F0.569760512506887
sI4
F0.5567542208552188
ssg10
g14
(g21
tp76
Rp77
I0
F0.5721040420544146
sI1
F0.5587839280659023
sI2
F0.5655297028900945
sI3
F0.6203654602870055
sI4
F0.543737076974656
sssg5
g14
(g18
tp78
Rp79
g12
g14
(g21
tp80
Rp81
I0
F0.5141418087222885
sI1
F0.5110780994092112
sI2
F0.5372358714999322
sI3
F0.49720938432002193
sI4
F0.5110438796599889
ssg11
g14
(g21
tp82
Rp83
I0
F0.5587310924651648
sI1
F0.5655223881442121
sI2
F0.5607823121412104
sI3
F0.559931608352234
sI4
F0.5486880612230028
ssg10
g14
(g21
tp84
Rp85
I0
F0.5968691374911442
sI1
F0.571760397059145
sI2
F0.627307862948106
sI3
F0.5623983815125949
sI4
F0.6260099084447309
sssg4
g14
(g18
tp86
Rp87
g12
g14
(g21
tp88
Rp89
I0
F0.5184833590670097
sI1
F0.5140671271635642
sI2
F0.5124173567888278
sI3
F0.5269259178934166
sI4
F0.5205230344222305
ssg11
g14
(g21
tp90
Rp91
I0
F0.608150969670951
sI1
F0.6123674580233414
sI2
F0.5971449059298108
sI3
F0.6109115447821695
sI4
F0.6121799699484821
ssg10
g14
(g21
tp92
Rp93
I0
F0.5567768413114129
sI1
F0.5688514110411589
sI2
F0.5467101410754172
sI3
F0.5564000290639679
sI4
F0.5551457840651078
sssg3
g14
(g18
tp94
Rp95
g12
g14
(g21
tp96
Rp97
I0
F0.6110803017494393
sI1
F0.6089298513897767
sI2
F0.6141694737644586
sI3
F0.6119760405057257
sI4
F0.6092458413377959
ssg11
g14
(g21
tp98
Rp99
I0
F0.6032377703902174
sI1
F0.6078674959600675
sI2
F0.6012035190828507
sI3
F0.603580191648419
sI4
F0.6002998748695327
ssg10
g14
(g21
tp100
Rp101
I0
F0.6023660423871363
sI1
F0.6024708810892558
sI2
F0.6009208338857108
sI3
F0.6053242130794702
sI4
F0.6007482414941087
sssag14
(g15
tp102
Rp103
g2
g14
(g18
tp104
Rp105
g12
g14
(g21
tp106
Rp107
I0
F0.6789406151133659
sI1
F0.6863850979391488
sI2
F0.6775840886386503
sI3
F0.6773741616991373
sI4
F0.6744191121765273
ssg11
g14
(g21
tp108
Rp109
I0
F0.7674194903453346
sI1
F0.7667715771252857
sI2
F0.7697037099960947
sI3
F0.7673307974143745
sI4
F0.7658718768455841
ssg10
g14
(g21
tp110
Rp111
I0
F0.8185391037768988
sI1
F0.8095181001240976
sI2
F0.8216765535506646
sI3
F0.8188345257170196
sI4
F0.8241272357158131
sssg6
g14
(g18
tp112
Rp113
g12
g14
(g21
tp114
Rp115
I0
F0.858518571653237
sI1
F0.8583259550208024
sI2
F0.8653406706477543
sI3
F0.8468413387031427
sI4
F0.8635663222412485
ssg11
g14
(g21
tp116
Rp117
I0
F0.8883587911246167
sI1
F0.8893642282536265
sI2
F0.8900195248430491
sI3
F0.8844140210077481
sI4
F0.8896373903940431
ssg10
g14
(g21
tp118
Rp119
I0
F0.9194059910223105
sI1
F0.9230276424082311
sI2
F0.9238764821450265
sI3
F0.9048713685586932
sI4
F0.925848470977291
sssg5
g14
(g18
tp120
Rp121
g12
g14
(g21
tp122
Rp123
I0
F0.8722542996748499
sI1
F0.864275262200261
sI2
F0.8770140414391313
sI3
F0.867007115144551
sI4
F0.8807207799154562
ssg11
g14
(g21
tp124
Rp125
I0
F0.913144278464499
sI1
F0.9224218703804067
sI2
F0.9163763064961217
sI3
F0.9086099960844481
sI4
F0.9051689408970194
ssg10
g14
(g21
tp126
Rp127
I0
F0.9248953103137048
sI1
F0.9338461050729718
sI2
F0.924815217362383
sI3
F0.9244321465905448
sI4
F0.9164877722289191
sssg4
g14
(g18
tp128
Rp129
g12
g14
(g21
tp130
Rp131
I0
F0.8560047620548487
sI1
F0.8548213712682071
sI2
F0.8535320335965245
sI3
F0.8503013594505381
sI4
F0.8653642839041248
ssg11
g14
(g21
tp132
Rp133
I0
F0.876747885620088
sI1
F0.8748332833772543
sI2
F0.879718396350397
sI3
F0.8744568619035809
sI4
F0.87798300084912
ssg10
g14
(g21
tp134
Rp135
I0
F0.9224240488516445
sI1
F0.9270653546363558
sI2
F0.9149030767857143
sI3
F0.9224712599415085
sI4
F0.9252565040429995
sssg3
g14
(g18
tp136
Rp137
g12
g14
(g21
tp138
Rp139
I0
F0.8418135298561784
sI1
F0.8415790751933971
sI2
F0.8415333310295441
sI3
F0.8421925146915246
sI4
F0.8419491985102477
ssg11
g14
(g21
tp140
Rp141
I0
F0.8905725750739848
sI1
F0.8923293864225419
sI2
F0.8918614529051906
sI3
F0.8866751870662599
sI4
F0.8914242739019471
ssg10
g14
(g21
tp142
Rp143
I0
F0.9157086448413805
sI1
F0.9166808367843257
sI2
F0.9190249674311933
sI3
F0.9136654178127465
sI4
F0.9134633573372566
sssag14
(g15
tp144
Rp145
g2
g14
(g18
tp146
Rp147
g12
g14
(g21
tp148
Rp149
I1
F0.137434200445
sI2
F0.145071755017
sI3
F0.137199737948
sI4
F0.143405631123
ssg11
g14
(g21
tp150
Rp151
I1
F0.143201503994
sI2
F0.151363542096
sI3
F0.138235580335
sI4
F0.137239984519
ssg10
g14
(g21
tp152
Rp153
I1
F0.172199737719
sI2
F0.19363291205
sI3
F0.19206966923300003
sI4
F0.2049088483665
sssg6
g14
(g18
tp154
Rp155
g12
g14
(g21
tp156
Rp157
I1
F0.044010410769
sI2
F0.156073699575
sI3
F0.0546217555076
sI4
F0.127280382468
ssg11
g14
(g21
tp158
Rp159
I1
F0.0744694410357
sI2
F0.161168625284
sI3
F0.117963911074
sI4
F0.111425786076
ssg10
g14
(g21
tp160
Rp161
I1
F0.179300531014
sI2
F0.138879886616
sI3
F0.277885880374
sI4
F0.17528713115500003
sssg5
g14
(g18
tp162
Rp163
g12
g14
(g21
tp164
Rp165
I1
F0.110168231412
sI2
F0.15929169659699996
sI3
F0.104004865833
sI4
F0.120758441333
ssg11
g14
(g21
tp166
Rp167
I1
F0.132393541862
sI2
F0.0720520845868
sI3
F0.068197272037
sI4
F0.187620639393
ssg10
g14
(g21
tp168
Rp169
I1
F0.139551492071
sI2
F0.292671201342
sI3
F0.1410264906
sI4
F0.0973734878496
sssg4
g14
(g18
tp170
Rp171
g12
g14
(g21
tp172
Rp173
I1
F0.0806196414509
sI2
F0.0807674886821
sI3
F0.09508779530375
sI4
F0.0347139661846
ssg11
g14
(g21
tp174
Rp175
I1
F0.0784614876532
sI2
F0.121485387454
sI3
F0.109705504214
sI4
F0.122728040374
ssg10
g14
(g21
tp176
Rp177
I1
F0.17286180228
sI2
F0.150598552507
sI3
F0.142845055252
sI4
F0.172006553933
sssg3
g14
(g18
tp178
Rp179
g12
g14
(g21
tp180
Rp181
I1
F0.168751934584
sI2
F0.185308557144
sI3
F0.161465534567
sI4
F0.16759766208
ssg11
g14
(g21
tp182
Rp183
I1
F0.185032523451
sI2
F0.183511461104
sI3
F0.174139406998
sI4
F0.18566196526
ssg10
g14
(g21
tp184
Rp185
I1
F0.153330730007
sI2
F0.17024208759
sI3
F0.154457228041
sI4
F0.156867810568
sssag14
(g15
tp186
Rp187
g2
g14
(g18
tp188
Rp189
g12
g14
(g21
tp190
Rp191
I0
F15.84999999999996
sI1
F15.99999999999996
sI2
F15.299999999999962
sI3
F15.79999999999996
sI4
F16.29999999999996
ssg11
g14
(g21
tp192
Rp193
I0
F11.649999999999974
sI1
F11.599999999999975
sI2
F11.699999999999974
sI3
F11.399999999999975
sI4
F11.899999999999974
ssg10
g14
(g21
tp194
Rp195
I0
F9.574999999999982
sI1
F10.19999999999998
sI2
F9.099999999999984
sI3
F9.699999999999982
sI4
F9.299999999999983
sssg6
g14
(g18
tp196
Rp197
g12
g14
(g21
tp198
Rp199
I0
F6.699999999999992
sI1
F6.999999999999991
sI2
F6.5999999999999925
sI3
F6.5999999999999925
sI4
F6.5999999999999925
ssg11
g14
(g21
tp200
Rp201
I0
F5.174999999999997
sI1
F5.399999999999997
sI2
F4.699999999999999
sI3
F5.599999999999996
sI4
F4.999999999999998
ssg10
g14
(g21
tp202
Rp203
I0
F3.5750000000000015
sI1
F3.600000000000002
sI2
F3.600000000000002
sI3
F3.900000000000002
sI4
F3.2000000000000015
sssg5
g14
(g18
tp204
Rp205
g12
g14
(g21
tp206
Rp207
I0
F6.324999999999994
sI1
F6.799999999999992
sI2
F5.599999999999996
sI3
F7.29999999999999
sI4
F5.599999999999996
ssg11
g14
(g21
tp208
Rp209
I0
F4.2250000000000005
sI1
F3.3000000000000016
sI2
F4.100000000000001
sI3
F4.6
sI4
F4.899999999999999
ssg10
g14
(g21
tp210
Rp211
I0
F3.0500000000000016
sI1
F2.600000000000001
sI2
F3.2000000000000015
sI3
F3.0000000000000013
sI4
F3.4000000000000017
sssg4
g14
(g18
tp212
Rp213
g12
g14
(g21
tp214
Rp215
I0
F7.6249999999999885
sI1
F8.199999999999987
sI2
F7.39999999999999
sI3
F8.199999999999987
sI4
F6.699999999999992
ssg11
g14
(g21
tp216
Rp217
I0
F5.274999999999997
sI1
F5.1999999999999975
sI2
F5.299999999999997
sI3
F5.799999999999995
sI4
F4.799999999999999
ssg10
g14
(g21
tp218
Rp219
I0
F4.000000000000002
sI1
F3.4000000000000017
sI2
F4.6
sI3
F4.100000000000001
sI4
F3.900000000000002
sssg3
g14
(g18
tp220
Rp221
g12
g14
(g21
tp222
Rp223
I0
F8.624999999999986
sI1
F8.399999999999986
sI2
F8.799999999999985
sI3
F8.599999999999985
sI4
F8.699999999999985
ssg11
g14
(g21
tp224
Rp225
I0
F5.049999999999998
sI1
F4.999999999999998
sI2
F4.799999999999999
sI3
F5.299999999999997
sI4
F5.099999999999998
ssg10
g14
(g21
tp226
Rp227
I0
F4.475
sI1
F4.4
sI2
F4.300000000000001
sI3
F4.5
sI4
F4.699999999999999
sssa.