(lp0
(lp1
S'dwa_v1_a0_b0'
p2
aa(lp3
g2
aS'dwa_v2_a1_b0'
p4
aa(lp5
S'S1'
p6
aS'S2'
p7
aS'S3'
p8
aa(dp9
g8
(dp10
S'b'
p11
(dp12
g4
F46.400000000000006
sg2
F35.5
ssS'sa_m1'
p13
(dp14
g2
F41.8
ssS'sa_m0'
p15
(dp16
g2
F40.0
ssS'sa_m2'
p17
(dp18
g2
F29.400000000000006
sssg7
(dp19
g11
(dp20
g4
F46.2
sg2
F35.0
ssg13
(dp21
g2
F41.3
ssg15
(dp22
g2
F35.5
ssg17
(dp23
g2
F31.900000000000006
sssg6
(dp24
g11
(dp25
g4
F46.5
sg2
F35.400000000000006
ssg13
(dp26
g2
F42.5
ssg15
(dp27
g2
F39.400000000000006
ssg17
(dp28
g2
F31.900000000000006
sssa(dp29
g8
(dp30
g11
(dp31
g4
F0.6139560668311405
sg2
F0.7860228083121041
ssg13
(dp32
g2
F0.5393679845595525
ssg15
(dp33
g2
F0.49839772776302166
ssg17
(dp34
g2
F0.3833059313795512
sssg7
(dp35
g11
(dp36
g4
F0.6030851969145685
sg2
F0.7820175222321691
ssg13
(dp37
g2
F0.5373561809684544
ssg15
(dp38
g2
F0.5787780665382631
ssg17
(dp39
g2
F0.438202354570073
sssg6
(dp40
g11
(dp41
g4
F0.6021095004582373
sg2
F0.7774260194930255
ssg13
(dp42
g2
F0.5765636271943226
ssg15
(dp43
g2
F0.5687714312692633
ssg17
(dp44
g2
F0.5958638511161682
sssa(dp45
g8
(dp46
g11
(dp47
g4
F0.8401480490196748
sg2
F0.6764253668687428
ssg13
(dp48
g2
F0.8800380352642466
ssg15
(dp49
g2
F0.8482116656324055
ssg17
(dp50
g2
F0.8480779355230429
sssg7
(dp51
g11
(dp52
g4
F0.8916530886773256
sg2
F0.7680956625521215
ssg13
(dp53
g2
F0.884194836490796
ssg15
(dp54
g2
F0.8454435962704814
ssg17
(dp55
g2
F0.8635725969694604
sssg6
(dp56
g11
(dp57
g4
F0.9169180718425345
sg2
F0.8106794596304592
ssg13
(dp58
g2
F0.9408833164673812
ssg15
(dp59
g2
F0.9242253869697994
ssg17
(dp60
g2
F0.9122352353915756
sssa(dp61
g8
(dp62
g11
(dp63
g4
F0.151666114628
sg2
F0.147746383142
ssg13
(dp64
g2
F0.0826207157798
ssg15
(dp65
g2
F0.0354857723614
ssg17
(dp66
g2
F0.0695470923838
sssg7
(dp67
g11
(dp68
g4
F0.1770301907
sg2
F0.129691450627
ssg13
(dp69
g2
F0.0552427866594
ssg15
(dp70
g2
F0.0602801114267
ssg17
(dp71
g2
F0.0795587629102
sssg6
(dp72
g11
(dp73
g4
F0.1645995026865
sg2
F0.205948204578
ssg13
(dp74
g2
F0.28921916949
ssg15
(dp75
g2
F0.040075447713375
ssg17
(dp76
g2
F0.0873419816277
sssa(dp77
g8
(dp78
g11
(dp79
g4
F8.599999999999985
sg2
F16.499999999999964
ssg13
(dp80
g2
F5.399999999999997
ssg15
(dp81
g2
F8.499999999999986
ssg17
(dp82
g2
F8.199999999999987
sssg7
(dp83
g11
(dp84
g4
F5.1999999999999975
sg2
F11.799999999999974
ssg13
(dp85
g2
F5.1999999999999975
ssg15
(dp86
g2
F6.999999999999991
ssg17
(dp87
g2
F7.699999999999989
sssg6
(dp88
g11
(dp89
g4
F4.4
sg2
F9.99999999999998
ssg13
(dp90
g2
F2.2000000000000006
ssg15
(dp91
g2
F4.000000000000002
ssg17
(dp92
g2
F4.6
sssa.